target datalayout = "e-m:e-p270:32:32-p271:32:32-p272:64:64-i64:64-i128:128-f80:128-n8:16:32:64-S128"
target triple = "x86_64-pc-linux-gnu"

%struct.dbd_node_state_msg = type { i64, ptr, ptr, ptr, ptr, i16, ptr, i32, i32, ptr }

; Function Attrs: nounwind uwtable
define internal void @_pack_node_state_msg(ptr noundef %0, i16 noundef zeroext %1, ptr noundef %2) #0 {
  %4 = alloca ptr, align 8
  %5 = alloca i16, align 2
  %6 = alloca ptr, align 8
  %7 = alloca i32, align 4
  %8 = alloca i32, align 4
  %9 = alloca i32, align 4
  %10 = alloca i32, align 4
  %11 = alloca i32, align 4
  %12 = alloca i32, align 4
  store ptr %0, ptr %4, align 8
  store i16 %1, ptr %5, align 2
  store ptr %2, ptr %6, align 8
  %13 = load i16, ptr %5, align 2
  %14 = zext i16 %13 to i32
  %15 = icmp sge i32 %14, 10240
  br i1 %15, label %16, label %147

16:                                               ; preds = %3
  br label %17

17:                                               ; preds = %16
  call void @llvm.lifetime.start.p0(i64 4, ptr %7) #5
  store i32 0, ptr %7, align 4
  %18 = load ptr, ptr %4, align 8
  %19 = getelementptr inbounds nuw %struct.dbd_node_state_msg, ptr %18, i32 0, i32 2
  %20 = load ptr, ptr %19, align 8
  %21 = icmp ne ptr %20, null
  br i1 %21, label %22, label %29

22:                                               ; preds = %17
  %23 = load ptr, ptr %4, align 8
  %24 = getelementptr inbounds nuw %struct.dbd_node_state_msg, ptr %23, i32 0, i32 2
  %25 = load ptr, ptr %24, align 8
  %26 = call i64 @strlen(ptr noundef %25) #6
  %27 = trunc i64 %26 to i32
  %28 = add i32 %27, 1
  store i32 %28, ptr %7, align 4
  br label %29

29:                                               ; preds = %22, %17
  %30 = load ptr, ptr %4, align 8
  %31 = getelementptr inbounds nuw %struct.dbd_node_state_msg, ptr %30, i32 0, i32 2
  %32 = load ptr, ptr %31, align 8
  %33 = load i32, ptr %7, align 4
  %34 = load ptr, ptr %6, align 8
  call void @packmem(ptr noundef %32, i32 noundef %33, ptr noundef %34)
  call void @llvm.lifetime.end.p0(i64 4, ptr %7) #5
  br label %35

35:                                               ; preds = %29
  br label %36

36:                                               ; preds = %35
  call void @llvm.lifetime.start.p0(i64 4, ptr %8) #5
  store i32 0, ptr %8, align 4
  %37 = load ptr, ptr %4, align 8
  %38 = getelementptr inbounds nuw %struct.dbd_node_state_msg, ptr %37, i32 0, i32 1
  %39 = load ptr, ptr %38, align 8
  %40 = icmp ne ptr %39, null
  br i1 %40, label %41, label %48

41:                                               ; preds = %36
  %42 = load ptr, ptr %4, align 8
  %43 = getelementptr inbounds nuw %struct.dbd_node_state_msg, ptr %42, i32 0, i32 1
  %44 = load ptr, ptr %43, align 8
  %45 = call i64 @strlen(ptr noundef %44) #6
  %46 = trunc i64 %45 to i32
  %47 = add i32 %46, 1
  store i32 %47, ptr %8, align 4
  br label %48

48:                                               ; preds = %41, %36
  %49 = load ptr, ptr %4, align 8
  %50 = getelementptr inbounds nuw %struct.dbd_node_state_msg, ptr %49, i32 0, i32 1
  %51 = load ptr, ptr %50, align 8
  %52 = load i32, ptr %8, align 4
  %53 = load ptr, ptr %6, align 8
  call void @packmem(ptr noundef %51, i32 noundef %52, ptr noundef %53)
  call void @llvm.lifetime.end.p0(i64 4, ptr %8) #5
  br label %54

54:                                               ; preds = %48
  br label %55

55:                                               ; preds = %54
  call void @llvm.lifetime.start.p0(i64 4, ptr %9) #5
  store i32 0, ptr %9, align 4
  %56 = load ptr, ptr %4, align 8
  %57 = getelementptr inbounds nuw %struct.dbd_node_state_msg, ptr %56, i32 0, i32 3
  %58 = load ptr, ptr %57, align 8
  %59 = icmp ne ptr %58, null
  br i1 %59, label %60, label %67

60:                                               ; preds = %55
  %61 = load ptr, ptr %4, align 8
  %62 = getelementptr inbounds nuw %struct.dbd_node_state_msg, ptr %61, i32 0, i32 3
  %63 = load ptr, ptr %62, align 8
  %64 = call i64 @strlen(ptr noundef %63) #6
  %65 = trunc i64 %64 to i32
  %66 = add i32 %65, 1
  store i32 %66, ptr %9, align 4
  br label %67

67:                                               ; preds = %60, %55
  %68 = load ptr, ptr %4, align 8
  %69 = getelementptr inbounds nuw %struct.dbd_node_state_msg, ptr %68, i32 0, i32 3
  %70 = load ptr, ptr %69, align 8
  %71 = load i32, ptr %9, align 4
  %72 = load ptr, ptr %6, align 8
  call void @packmem(ptr noundef %70, i32 noundef %71, ptr noundef %72)
  call void @llvm.lifetime.end.p0(i64 4, ptr %9) #5
  br label %73

73:                                               ; preds = %67
  br label %74

74:                                               ; preds = %73
  call void @llvm.lifetime.start.p0(i64 4, ptr %10) #5
  store i32 0, ptr %10, align 4
  %75 = load ptr, ptr %4, align 8
  %76 = getelementptr inbounds nuw %struct.dbd_node_state_msg, ptr %75, i32 0, i32 4
  %77 = load ptr, ptr %76, align 8
  %78 = icmp ne ptr %77, null
  br i1 %78, label %79, label %86

79:                                               ; preds = %74
  %80 = load ptr, ptr %4, align 8
  %81 = getelementptr inbounds nuw %struct.dbd_node_state_msg, ptr %80, i32 0, i32 4
  %82 = load ptr, ptr %81, align 8
  %83 = call i64 @strlen(ptr noundef %82) #6
  %84 = trunc i64 %83 to i32
  %85 = add i32 %84, 1
  store i32 %85, ptr %10, align 4
  br label %86

86:                                               ; preds = %79, %74
  %87 = load ptr, ptr %4, align 8
  %88 = getelementptr inbounds nuw %struct.dbd_node_state_msg, ptr %87, i32 0, i32 4
  %89 = load ptr, ptr %88, align 8
  %90 = load i32, ptr %10, align 4
  %91 = load ptr, ptr %6, align 8
  call void @packmem(ptr noundef %89, i32 noundef %90, ptr noundef %91)
  call void @llvm.lifetime.end.p0(i64 4, ptr %10) #5
  br label %92

92:                                               ; preds = %86
  br label %93

93:                                               ; preds = %92
  call void @llvm.lifetime.start.p0(i64 4, ptr %11) #5
  store i32 0, ptr %11, align 4
  %94 = load ptr, ptr %4, align 8
  %95 = getelementptr inbounds nuw %struct.dbd_node_state_msg, ptr %94, i32 0, i32 6
  %96 = load ptr, ptr %95, align 8
  %97 = icmp ne ptr %96, null
  br i1 %97, label %98, label %105

98:                                               ; preds = %93
  %99 = load ptr, ptr %4, align 8
  %100 = getelementptr inbounds nuw %struct.dbd_node_state_msg, ptr %99, i32 0, i32 6
  %101 = load ptr, ptr %100, align 8
  %102 = call i64 @strlen(ptr noundef %101) #6
  %103 = trunc i64 %102 to i32
  %104 = add i32 %103, 1
  store i32 %104, ptr %11, align 4
  br label %105

105:                                              ; preds = %98, %93
  %106 = load ptr, ptr %4, align 8
  %107 = getelementptr inbounds nuw %struct.dbd_node_state_msg, ptr %106, i32 0, i32 6
  %108 = load ptr, ptr %107, align 8
  %109 = load i32, ptr %11, align 4
  %110 = load ptr, ptr %6, align 8
  call void @packmem(ptr noundef %108, i32 noundef %109, ptr noundef %110)
  call void @llvm.lifetime.end.p0(i64 4, ptr %11) #5
  br label %111

111:                                              ; preds = %105
  %112 = load ptr, ptr %4, align 8
  %113 = getelementptr inbounds nuw %struct.dbd_node_state_msg, ptr %112, i32 0, i32 7
  %114 = load i32, ptr %113, align 8
  %115 = load ptr, ptr %6, align 8
  call void @pack32(i32 noundef %114, ptr noundef %115)
  %116 = load ptr, ptr %4, align 8
  %117 = getelementptr inbounds nuw %struct.dbd_node_state_msg, ptr %116, i32 0, i32 5
  %118 = load i16, ptr %117, align 8
  %119 = load ptr, ptr %6, align 8
  call void @pack16(i16 noundef zeroext %118, ptr noundef %119)
  %120 = load ptr, ptr %4, align 8
  %121 = getelementptr inbounds nuw %struct.dbd_node_state_msg, ptr %120, i32 0, i32 0
  %122 = load i64, ptr %121, align 8
  %123 = load ptr, ptr %6, align 8
  call void @pack_time(i64 noundef %122, ptr noundef %123)
  %124 = load ptr, ptr %4, align 8
  %125 = getelementptr inbounds nuw %struct.dbd_node_state_msg, ptr %124, i32 0, i32 8
  %126 = load i32, ptr %125, align 4
  %127 = load ptr, ptr %6, align 8
  call void @pack32(i32 noundef %126, ptr noundef %127)
  br label %128

128:                                              ; preds = %111
  call void @llvm.lifetime.start.p0(i64 4, ptr %12) #5
  store i32 0, ptr %12, align 4
  %129 = load ptr, ptr %4, align 8
  %130 = getelementptr inbounds nuw %struct.dbd_node_state_msg, ptr %129, i32 0, i32 9
  %131 = load ptr, ptr %130, align 8
  %132 = icmp ne ptr %131, null
  br i1 %132, label %133, label %140

133:                                              ; preds = %128
  %134 = load ptr, ptr %4, align 8
  %135 = getelementptr inbounds nuw %struct.dbd_node_state_msg, ptr %134, i32 0, i32 9
  %136 = load ptr, ptr %135, align 8
  %137 = call i64 @strlen(ptr noundef %136) #6
  %138 = trunc i64 %137 to i32
  %139 = add i32 %138, 1
  store i32 %139, ptr %12, align 4
  br label %140

140:                                              ; preds = %133, %128
  %141 = load ptr, ptr %4, align 8
  %142 = getelementptr inbounds nuw %struct.dbd_node_state_msg, ptr %141, i32 0, i32 9
  %143 = load ptr, ptr %142, align 8
  %144 = load i32, ptr %12, align 4
  %145 = load ptr, ptr %6, align 8
  call void @packmem(ptr noundef %143, i32 noundef %144, ptr noundef %145)
  call void @llvm.lifetime.end.p0(i64 4, ptr %12) #5
  br label %146

146:                                              ; preds = %140
  br label %147

147:                                              ; preds = %146, %3
  ret void
}