; Function Attrs: nounwind uwtable
define internal fastcc void @_pack_node_state_msg(ptr noundef readonly captures(none) %0, i16 noundef zeroext %1, ptr noundef %2) unnamed_addr #0 {
  %4 = icmp ugt i16 %1, 10239
  br i1 %4, label %5, label %55

5:                                                ; preds = %3
  %6 = getelementptr inbounds nuw i8, ptr %0, i64 16
  %7 = load ptr, ptr %6, align 8
  %.not = icmp eq ptr %7, null
  br i1 %.not, label %12, label %8

8:                                                ; preds = %5
  %9 = tail call i64 @strlen(ptr noundef nonnull dereferenceable(1) %7) #7
  %10 = trunc i64 %9 to i32
  %11 = add i32 %10, 1
  br label %12

12:                                               ; preds = %8, %5
  %.042 = phi i32 [ %11, %8 ], [ 0, %5 ]
  tail call void @packmem(ptr noundef %7, i32 noundef %.042, ptr noundef %2) #5
  %13 = getelementptr inbounds nuw i8, ptr %0, i64 8
  %14 = load ptr, ptr %13, align 8
  %.not49 = icmp eq ptr %14, null
  br i1 %.not49, label %19, label %15

15:                                               ; preds = %12
  %16 = tail call i64 @strlen(ptr noundef nonnull dereferenceable(1) %14) #7
  %17 = trunc i64 %16 to i32
  %18 = add i32 %17, 1
  br label %19

19:                                               ; preds = %15, %12
  %.041 = phi i32 [ %18, %15 ], [ 0, %12 ]
  tail call void @packmem(ptr noundef %14, i32 noundef %.041, ptr noundef %2) #5
  %20 = getelementptr inbounds nuw i8, ptr %0, i64 24
  %21 = load ptr, ptr %20, align 8
  %.not50 = icmp eq ptr %21, null
  br i1 %.not50, label %26, label %22

22:                                               ; preds = %19
  %23 = tail call i64 @strlen(ptr noundef nonnull dereferenceable(1) %21) #7
  %24 = trunc i64 %23 to i32
  %25 = add i32 %24, 1
  br label %26

26:                                               ; preds = %22, %19
  %.040 = phi i32 [ %25, %22 ], [ 0, %19 ]
  tail call void @packmem(ptr noundef %21, i32 noundef %.040, ptr noundef %2) #5
  %27 = getelementptr inbounds nuw i8, ptr %0, i64 32
  %28 = load ptr, ptr %27, align 8
  %.not51 = icmp eq ptr %28, null
  br i1 %.not51, label %33, label %29

29:                                               ; preds = %26
  %30 = tail call i64 @strlen(ptr noundef nonnull dereferenceable(1) %28) #7
  %31 = trunc i64 %30 to i32
  %32 = add i32 %31, 1
  br label %33

33:                                               ; preds = %29, %26
  %.039 = phi i32 [ %32, %29 ], [ 0, %26 ]
  tail call void @packmem(ptr noundef %28, i32 noundef %.039, ptr noundef %2) #5
  %34 = getelementptr inbounds nuw i8, ptr %0, i64 48
  %35 = load ptr, ptr %34, align 8
  %.not52 = icmp eq ptr %35, null
  br i1 %.not52, label %40, label %36

36:                                               ; preds = %33
  %37 = tail call i64 @strlen(ptr noundef nonnull dereferenceable(1) %35) #7
  %38 = trunc i64 %37 to i32
  %39 = add i32 %38, 1
  br label %40

40:                                               ; preds = %36, %33
  %.038 = phi i32 [ %39, %36 ], [ 0, %33 ]
  tail call void @packmem(ptr noundef %35, i32 noundef %.038, ptr noundef %2) #5
  %41 = getelementptr inbounds nuw i8, ptr %0, i64 56
  %42 = load i32, ptr %41, align 8
  tail call void @pack32(i32 noundef %42, ptr noundef %2) #5
  %43 = getelementptr inbounds nuw i8, ptr %0, i64 40
  %44 = load i16, ptr %43, align 8
  tail call void @pack16(i16 noundef zeroext %44, ptr noundef %2) #5
  %45 = load i64, ptr %0, align 8
  tail call void @pack_time(i64 noundef %45, ptr noundef %2) #5
  %46 = getelementptr inbounds nuw i8, ptr %0, i64 60
  %47 = load i32, ptr %46, align 4
  tail call void @pack32(i32 noundef %47, ptr noundef %2) #5
  %48 = getelementptr inbounds nuw i8, ptr %0, i64 64
  %49 = load ptr, ptr %48, align 8
  %.not53 = icmp eq ptr %49, null
  br i1 %.not53, label %54, label %50

50:                                               ; preds = %40
  %51 = tail call i64 @strlen(ptr noundef nonnull dereferenceable(1) %49) #7
  %52 = trunc i64 %51 to i32
  %53 = add i32 %52, 1
  br label %54

54:                                               ; preds = %50, %40
  %.0 = phi i32 [ %53, %50 ], [ 0, %40 ]
  tail call void @packmem(ptr noundef %49, i32 noundef %.0, ptr noundef %2) #5
  br label %55

55:                                               ; preds = %54, %3
  ret void
}